target datalayout = "e-m:e-p270:32:32-p271:32:32-p272:64:64-i64:64-i128:128-f80:128-n8:16:32:64-S128"
target triple = "x86_64-pc-linux-gnu"

%"struct.Catch::SourceLineInfo" = type { ptr, i64 }
%"class.Catch::StringRef" = type { ptr, i64 }
%"struct.vcpkg::Optional" = type { %"struct.vcpkg::details::OptionalStorage" }
%"struct.vcpkg::details::OptionalStorage" = type { %"struct.vcpkg::details::OptionalStorageDtor" }
%"struct.vcpkg::details::OptionalStorageDtor" = type { i8, %union.anon }
%union.anon = type { %"struct.vcpkg::CTime" }
%"struct.vcpkg::CTime" = type { %struct.tm }
%struct.tm = type { i32, i32, i32, i32, i32, i32, i32, i32, i32, i64, ptr }
%"struct.vcpkg::ZStringView" = type { %"struct.vcpkg::StringView" }
%"struct.vcpkg::StringView" = type { ptr, i64 }
%"class.Catch::AssertionHandler" = type { %"struct.Catch::AssertionInfo", %"struct.Catch::AssertionReaction", i8, ptr }
%"struct.Catch::AssertionInfo" = type <{ %"class.Catch::StringRef", %"struct.Catch::SourceLineInfo", %"class.Catch::StringRef", i32, [4 x i8] }>
%"struct.Catch::AssertionReaction" = type { i8, i8 }
%"class.Catch::ExprLhs" = type { i8 }
%"struct.Catch::Decomposer" = type { i8 }
%"struct.Catch::ITransientExpression.base" = type <{ ptr, i8, i8 }>
%"class.Catch::UnaryExpr" = type { %"struct.Catch::ITransientExpression.base", i8, [5 x i8] }
%"struct.Catch::ITransientExpression" = type <{ ptr, i8, i8, [6 x i8] }>

@.str = private unnamed_addr constant [120 x i8] c"generated/home/dtcxzyw/WorkSpace/Projects/compilers/llvm-opt-benchmark/bench/vcpkg/vcpkg-tool/src/vcpkg-test/chrono.cpp\00", align 1
@.str.9 = private unnamed_addr constant [1 x i8] zeroinitializer, align 1
@.str.12 = private unnamed_addr constant [23 x i8] c"maybe_time.has_value()\00", align 1
@_ZTVN5Catch20ITransientExpressionE = available_externally unnamed_addr constant { [5 x ptr] } { [5 x ptr] [ptr null, ptr @_ZTIN5Catch20ITransientExpressionE, ptr @__cxa_pure_virtual, ptr @_ZN5Catch20ITransientExpressionD1Ev, ptr @_ZN5Catch20ITransientExpressionD0Ev] }, align 8
@.str.17 = private unnamed_addr constant [14 x i8] c"REQUIRE_FALSE\00", align 1

; Function Attrs: mustprogress nounwind uwtable
define linkonce_odr dso_local void @_ZN5Catch20ITransientExpressionC2Ebb(ptr noundef nonnull align 8 dereferenceable(10) %0, i1 noundef zeroext %1, i1 noundef zeroext %2) unnamed_addr #4 comdat align 2 {
  %4 = alloca ptr, align 8
  %5 = alloca i8, align 1
  %6 = alloca i8, align 1
  store ptr %0, ptr %4, align 8, !tbaa !59
  %7 = zext i1 %1 to i8
  store i8 %7, ptr %5, align 1, !tbaa !29
  %8 = zext i1 %2 to i8
  store i8 %8, ptr %6, align 1, !tbaa !29
  %9 = load ptr, ptr %4, align 8
  store ptr getelementptr inbounds inrange(-16, 24) ({ [5 x ptr] }, ptr @_ZTVN5Catch20ITransientExpressionE, i32 0, i32 0, i32 2), ptr %9, align 8, !tbaa !44
  %10 = getelementptr inbounds nuw %"struct.Catch::ITransientExpression", ptr %9, i32 0, i32 1
  %11 = load i8, ptr %5, align 1, !tbaa !29, !range !31, !noundef !32
  %12 = trunc i8 %11 to i1
  %13 = zext i1 %12 to i8
  store i8 %13, ptr %10, align 8, !tbaa !61
  %14 = getelementptr inbounds nuw %"struct.Catch::ITransientExpression", ptr %9, i32 0, i32 2
  %15 = load i8, ptr %6, align 1, !tbaa !29, !range !31, !noundef !32
  %16 = trunc i8 %15 to i1
  %17 = zext i1 %16 to i8
  store i8 %17, ptr %14, align 1, !tbaa !62
  ret void
}

; Function Attrs: mustprogress uwtable
define linkonce_odr dso_local void @_ZN5Catch9UnaryExprIbEC2Eb(ptr noundef nonnull align 8 dereferenceable(11) %0, i1 noundef zeroext %1) unnamed_addr #2 comdat align 2 {
  %3 = alloca ptr, align 8
  %4 = alloca i8, align 1
  store ptr %0, ptr %3, align 8, !tbaa !54
  %5 = zext i1 %1 to i8
  store i8 %5, ptr %4, align 1, !tbaa !29
  %6 = load ptr, ptr %3, align 8
  %7 = load i8, ptr %4, align 1, !tbaa !29, !range !31, !noundef !32
  %8 = trunc i8 %7 to i1
  call void @_ZN5Catch20ITransientExpressionC2Ebb(ptr noundef nonnull align 8 dereferenceable(10) %6, i1 noundef zeroext false, i1 noundef zeroext %8)
  store ptr getelementptr inbounds inrange(-16, 24) ({ [5 x ptr] }, ptr @_ZTVN5Catch9UnaryExprIbEE, i32 0, i32 0, i32 2), ptr %6, align 8, !tbaa !44
  %9 = getelementptr inbounds nuw %"class.Catch::UnaryExpr", ptr %6, i32 0, i32 1
  %10 = load i8, ptr %4, align 1, !tbaa !29, !range !31, !noundef !32
  %11 = trunc i8 %10 to i1
  %12 = zext i1 %11 to i8
  store i8 %12, ptr %9, align 2, !tbaa !56
  ret void
}

; Function Attrs: mustprogress uwtable
define linkonce_odr dso_local void @_ZNK5Catch7ExprLhsIbE13makeUnaryExprEv(ptr dead_on_unwind noalias writable sret(%"class.Catch::UnaryExpr") align 8 %0, ptr noundef nonnull align 1 dereferenceable(1) %1) #2 comdat align 2 {
  %3 = alloca ptr, align 8
  %4 = alloca ptr, align 8
  store ptr %0, ptr %3, align 8
  store ptr %1, ptr %4, align 8, !tbaa !25
  %5 = load ptr, ptr %4, align 8
  %6 = getelementptr inbounds nuw %"class.Catch::ExprLhs", ptr %5, i32 0, i32 0
  %7 = load i8, ptr %6, align 1, !tbaa !52, !range !31, !noundef !32
  %8 = trunc i8 %7 to i1
  call void @_ZN5Catch9UnaryExprIbEC2Eb(ptr noundef nonnull align 8 dereferenceable(11) %0, i1 noundef zeroext %8)
  ret void
}

; Function Attrs: mustprogress nounwind uwtable
define linkonce_odr dso_local void @_ZN5Catch7ExprLhsIbEC2Eb(ptr noundef nonnull align 1 dereferenceable(1) %0, i1 noundef zeroext %1) unnamed_addr #4 comdat align 2 {
  %3 = alloca ptr, align 8
  %4 = alloca i8, align 1
  store ptr %0, ptr %3, align 8, !tbaa !25
  %5 = zext i1 %1 to i8
  store i8 %5, ptr %4, align 1, !tbaa !29
  %6 = load ptr, ptr %3, align 8
  %7 = getelementptr inbounds nuw %"class.Catch::ExprLhs", ptr %6, i32 0, i32 0
  %8 = load i8, ptr %4, align 1, !tbaa !29, !range !31, !noundef !32
  %9 = trunc i8 %8 to i1
  %10 = zext i1 %9 to i8
  store i8 %10, ptr %7, align 1, !tbaa !52
  ret void
}

; Function Attrs: mustprogress nounwind uwtable
define linkonce_odr dso_local void @_ZN5Catch9StringRefC2EPKcm(ptr noundef nonnull align 8 dereferenceable(16) %0, ptr noundef %1, i64 noundef %2) unnamed_addr #4 comdat align 2 {
  %4 = alloca ptr, align 8
  %5 = alloca ptr, align 8
  %6 = alloca i64, align 8
  store ptr %0, ptr %4, align 8, !tbaa !16
  store ptr %1, ptr %5, align 8, !tbaa !9
  store i64 %2, ptr %6, align 8, !tbaa !11
  %7 = load ptr, ptr %4, align 8
  %8 = getelementptr inbounds nuw %"class.Catch::StringRef", ptr %7, i32 0, i32 0
  %9 = load ptr, ptr %5, align 8, !tbaa !9
  store ptr %9, ptr %8, align 8, !tbaa !18
  %10 = getelementptr inbounds nuw %"class.Catch::StringRef", ptr %7, i32 0, i32 1
  %11 = load i64, ptr %6, align 8, !tbaa !11
  store i64 %11, ptr %10, align 8, !tbaa !20
  ret void
}

; Function Attrs: mustprogress nounwind uwtable
define linkonce_odr dso_local void @_ZN5vcpkg10StringViewC2EPKc(ptr noundef nonnull align 8 dereferenceable(16) %0, ptr noundef %1) unnamed_addr #4 comdat align 2 {
  %3 = alloca ptr, align 8
  %4 = alloca ptr, align 8
  store ptr %0, ptr %3, align 8, !tbaa !94
  store ptr %1, ptr %4, align 8, !tbaa !9
  %5 = load ptr, ptr %3, align 8
  %6 = getelementptr inbounds nuw %"struct.vcpkg::StringView", ptr %5, i32 0, i32 0
  %7 = load ptr, ptr %4, align 8, !tbaa !9
  store ptr %7, ptr %6, align 8, !tbaa !96
  %8 = getelementptr inbounds nuw %"struct.vcpkg::StringView", ptr %5, i32 0, i32 1
  %9 = load ptr, ptr %4, align 8, !tbaa !9
  %10 = call i64 @strlen(ptr noundef %9) #18
  store i64 %10, ptr %8, align 8, !tbaa !98
  ret void
}

; Function Attrs: mustprogress uwtable
define linkonce_odr dso_local void @_ZN5Catch16AssertionHandler10handleExprIbEEvRKNS_7ExprLhsIT_EE(ptr noundef nonnull align 8 dereferenceable(72) %0, ptr noundef nonnull align 1 dereferenceable(1) %1) #2 comdat align 2 personality ptr @__gxx_personality_v0 {
  %3 = alloca ptr, align 8
  %4 = alloca ptr, align 8
  %5 = alloca %"class.Catch::UnaryExpr", align 8
  %6 = alloca ptr, align 8
  %7 = alloca i32, align 4
  store ptr %0, ptr %3, align 8, !tbaa !23
  store ptr %1, ptr %4, align 8, !tbaa !25
  %8 = load ptr, ptr %3, align 8
  call void @llvm.lifetime.start.p0(i64 16, ptr %5) #6
  %9 = load ptr, ptr %4, align 8, !tbaa !25
  call void @_ZNK5Catch7ExprLhsIbE13makeUnaryExprEv(ptr dead_on_unwind writable sret(%"class.Catch::UnaryExpr") align 8 %5, ptr noundef nonnull align 1 dereferenceable(1) %9)
  invoke void @_ZN5Catch16AssertionHandler10handleExprERKNS_20ITransientExpressionE(ptr noundef nonnull align 8 dereferenceable(72) %8, ptr noundef nonnull align 8 dereferenceable(10) %5)
          to label %10 unwind label %11

10:                                               ; preds = %2
  call void @_ZN5Catch20ITransientExpressionD2Ev(ptr noundef nonnull align 8 dereferenceable(11) %5) #6
  call void @llvm.lifetime.end.p0(i64 16, ptr %5) #6
  ret void

11:                                               ; preds = %2
  %12 = landingpad { ptr, i32 }
          cleanup
  %13 = extractvalue { ptr, i32 } %12, 0
  store ptr %13, ptr %6, align 8
  %14 = extractvalue { ptr, i32 } %12, 1
  store i32 %14, ptr %7, align 4
  call void @_ZN5Catch20ITransientExpressionD2Ev(ptr noundef nonnull align 8 dereferenceable(11) %5) #6
  call void @llvm.lifetime.end.p0(i64 16, ptr %5) #6
  br label %15

15:                                               ; preds = %11
  %16 = load ptr, ptr %6, align 8
  %17 = load i32, ptr %7, align 4
  %18 = insertvalue { ptr, i32 } poison, ptr %16, 0
  %19 = insertvalue { ptr, i32 } %18, i32 %17, 1
  resume { ptr, i32 } %19
}

; Function Attrs: mustprogress uwtable
define linkonce_odr dso_local i8 @_ZN5Catch10DecomposerleEb(ptr noundef nonnull align 1 dereferenceable(1) %0, i1 noundef zeroext %1) #2 comdat align 2 {
  %3 = alloca %"class.Catch::ExprLhs", align 1
  %4 = alloca ptr, align 8
  %5 = alloca i8, align 1
  store ptr %0, ptr %4, align 8, !tbaa !27
  %6 = zext i1 %1 to i8
  store i8 %6, ptr %5, align 1, !tbaa !29
  %7 = load i8, ptr %5, align 1, !tbaa !29, !range !31, !noundef !32
  %8 = trunc i8 %7 to i1
  call void @_ZN5Catch7ExprLhsIbEC2Eb(ptr noundef nonnull align 1 dereferenceable(1) %3, i1 noundef zeroext %8)
  %9 = getelementptr inbounds nuw %"class.Catch::ExprLhs", ptr %3, i32 0, i32 0
  %10 = load i8, ptr %9, align 1
  ret i8 %10
}

; Function Attrs: mustprogress nounwind uwtable
define linkonce_odr dso_local noundef zeroext i1 @_ZNK5vcpkg7details15OptionalStorageINS_5CTimeELb1EE9has_valueEv(ptr noundef nonnull align 8 dereferenceable(64) %0) #4 comdat align 2 {
  %2 = alloca ptr, align 8
  store ptr %0, ptr %2, align 8, !tbaa !33
  %3 = load ptr, ptr %2, align 8
  %4 = getelementptr inbounds nuw %"struct.vcpkg::details::OptionalStorageDtor", ptr %3, i32 0, i32 0
  %5 = load i8, ptr %4, align 8, !tbaa !35, !range !31, !noundef !32
  %6 = trunc i8 %5 to i1
  ret i1 %6
}

; Function Attrs: mustprogress nounwind uwtable
define linkonce_odr dso_local void @_ZN5Catch14SourceLineInfoC2EPKcm(ptr noundef nonnull align 8 dereferenceable(16) %0, ptr noundef %1, i64 noundef %2) unnamed_addr #4 comdat align 2 {
  %4 = alloca ptr, align 8
  %5 = alloca ptr, align 8
  %6 = alloca i64, align 8
  store ptr %0, ptr %4, align 8, !tbaa !4
  store ptr %1, ptr %5, align 8, !tbaa !9
  store i64 %2, ptr %6, align 8, !tbaa !11
  %7 = load ptr, ptr %4, align 8
  %8 = getelementptr inbounds nuw %"struct.Catch::SourceLineInfo", ptr %7, i32 0, i32 0
  %9 = load ptr, ptr %5, align 8, !tbaa !9
  store ptr %9, ptr %8, align 8, !tbaa !13
  %10 = getelementptr inbounds nuw %"struct.Catch::SourceLineInfo", ptr %7, i32 0, i32 1
  %11 = load i64, ptr %6, align 8, !tbaa !11
  store i64 %11, ptr %10, align 8, !tbaa !15
  ret void
}

; Function Attrs: mustprogress nounwind uwtable
define linkonce_odr dso_local { ptr, i64 } @_Zli9_catch_srPKcm(ptr noundef %0, i64 noundef %1) #4 comdat {
  %3 = alloca %"class.Catch::StringRef", align 8
  %4 = alloca ptr, align 8
  %5 = alloca i64, align 8
  store ptr %0, ptr %4, align 8, !tbaa !9
  store i64 %1, ptr %5, align 8, !tbaa !11
  %6 = load ptr, ptr %4, align 8, !tbaa !9
  %7 = load i64, ptr %5, align 8, !tbaa !11
  call void @_ZN5Catch9StringRefC2EPKcm(ptr noundef nonnull align 8 dereferenceable(16) %3, ptr noundef %6, i64 noundef %7) #6
  %8 = load { ptr, i64 }, ptr %3, align 8
  ret { ptr, i64 } %8
}

; Function Attrs: mustprogress nounwind uwtable
define linkonce_odr dso_local void @_ZN5vcpkg11ZStringViewC2EPKc(ptr noundef nonnull align 8 dereferenceable(16) %0, ptr noundef %1) unnamed_addr #4 comdat align 2 {
  %3 = alloca ptr, align 8
  %4 = alloca ptr, align 8
  store ptr %0, ptr %3, align 8, !tbaa !92
  store ptr %1, ptr %4, align 8, !tbaa !9
  %5 = load ptr, ptr %3, align 8
  %6 = load ptr, ptr %4, align 8, !tbaa !9
  call void @_ZN5vcpkg10StringViewC2EPKc(ptr noundef nonnull align 8 dereferenceable(16) %5, ptr noundef %6) #6
  ret void
}

; Function Attrs: mustprogress uwtable
define internal void @_ZL19C_A_T_C_H_T_E_S_T_2v() #2 personality ptr @__gxx_personality_v0 {
  %1 = alloca %"struct.vcpkg::Optional", align 8
  %2 = alloca %"struct.vcpkg::ZStringView", align 8
  %3 = alloca %"class.Catch::AssertionHandler", align 8
  %4 = alloca %"class.Catch::StringRef", align 8
  %5 = alloca %"struct.Catch::SourceLineInfo", align 8
  %6 = alloca %"class.Catch::StringRef", align 8
  %7 = alloca %"class.Catch::ExprLhs", align 1
  %8 = alloca %"struct.Catch::Decomposer", align 1
  %9 = alloca ptr, align 8
  %10 = alloca i32, align 4
  call void @llvm.lifetime.start.p0(i64 64, ptr %1) #6
  call void @_ZN5vcpkg11ZStringViewC2EPKc(ptr noundef nonnull align 8 dereferenceable(16) %2, ptr noundef @.str.9) #6
  %11 = getelementptr inbounds nuw { ptr, i64 }, ptr %2, i32 0, i32 0
  %12 = load ptr, ptr %11, align 8
  %13 = getelementptr inbounds nuw { ptr, i64 }, ptr %2, i32 0, i32 1
  %14 = load i64, ptr %13, align 8
  call void @_ZN5vcpkg5CTime5parseENS_11ZStringViewE(ptr dead_on_unwind writable sret(%"struct.vcpkg::Optional") align 8 %1, ptr %12, i64 %14)
  br label %15

15:                                               ; preds = %0
  call void @llvm.lifetime.start.p0(i64 72, ptr %3) #6
  call void @llvm.lifetime.start.p0(i64 16, ptr %4) #6
  %16 = call { ptr, i64 } @_Zli9_catch_srPKcm(ptr noundef @.str.17, i64 noundef 13) #6
  %17 = getelementptr inbounds nuw { ptr, i64 }, ptr %4, i32 0, i32 0
  %18 = extractvalue { ptr, i64 } %16, 0
  store ptr %18, ptr %17, align 8
  %19 = getelementptr inbounds nuw { ptr, i64 }, ptr %4, i32 0, i32 1
  %20 = extractvalue { ptr, i64 } %16, 1
  store i64 %20, ptr %19, align 8
  call void @llvm.lifetime.start.p0(i64 16, ptr %5) #6
  call void @_ZN5Catch14SourceLineInfoC2EPKcm(ptr noundef nonnull align 8 dereferenceable(16) %5, ptr noundef @.str, i64 noundef 20) #6
  call void @_ZN5Catch9StringRefC1EPKc(ptr noundef nonnull align 8 dereferenceable(16) %6, ptr noundef @.str.12) #6
  %21 = call noundef i32 @_ZN5CatchorENS_17ResultDisposition5FlagsES1_(i32 noundef 1, i32 noundef 4)
  %22 = getelementptr inbounds nuw { ptr, i64 }, ptr %6, i32 0, i32 0
  %23 = load ptr, ptr %22, align 8
  %24 = getelementptr inbounds nuw { ptr, i64 }, ptr %6, i32 0, i32 1
  %25 = load i64, ptr %24, align 8
  call void @_ZN5Catch16AssertionHandlerC1ERKNS_9StringRefERKNS_14SourceLineInfoES1_NS_17ResultDisposition5FlagsE(ptr noundef nonnull align 8 dereferenceable(72) %3, ptr noundef nonnull align 8 dereferenceable(16) %4, ptr noundef nonnull align 8 dereferenceable(16) %5, ptr %23, i64 %25, i32 noundef %21)
  call void @llvm.lifetime.end.p0(i64 16, ptr %5) #6
  call void @llvm.lifetime.end.p0(i64 16, ptr %4) #6
  call void @llvm.lifetime.start.p0(i64 1, ptr %7) #6
  call void @llvm.lifetime.start.p0(i64 1, ptr %8) #6
  %26 = call noundef zeroext i1 @_ZNK5vcpkg7details15OptionalStorageINS_5CTimeELb1EE9has_valueEv(ptr noundef nonnull align 8 dereferenceable(64) %1) #6
  %27 = invoke i8 @_ZN5Catch10DecomposerleEb(ptr noundef nonnull align 1 dereferenceable(1) %8, i1 noundef zeroext %26)
          to label %28 unwind label %31

28:                                               ; preds = %15
  %29 = getelementptr inbounds nuw %"class.Catch::ExprLhs", ptr %7, i32 0, i32 0
  store i8 %27, ptr %29, align 1
  invoke void @_ZN5Catch16AssertionHandler10handleExprIbEEvRKNS_7ExprLhsIT_EE(ptr noundef nonnull align 8 dereferenceable(72) %3, ptr noundef nonnull align 1 dereferenceable(1) %7)
          to label %30 unwind label %31

30:                                               ; preds = %28
  call void @llvm.lifetime.end.p0(i64 1, ptr %8) #6
  call void @llvm.lifetime.end.p0(i64 1, ptr %7) #6
  br label %40

31:                                               ; preds = %28, %15
  %32 = landingpad { ptr, i32 }
          catch ptr null
  %33 = extractvalue { ptr, i32 } %32, 0
  store ptr %33, ptr %9, align 8
  %34 = extractvalue { ptr, i32 } %32, 1
  store i32 %34, ptr %10, align 4
  call void @llvm.lifetime.end.p0(i64 1, ptr %8) #6
  call void @llvm.lifetime.end.p0(i64 1, ptr %7) #6
  br label %35

35:                                               ; preds = %31
  %36 = load ptr, ptr %9, align 8
  %37 = call ptr @__cxa_begin_catch(ptr %36) #6
  invoke void @_ZN5Catch16AssertionHandler33handleUnexpectedInflightExceptionEv(ptr noundef nonnull align 8 dereferenceable(72) %3)
          to label %38 unwind label %44

38:                                               ; preds = %35
  invoke void @__cxa_end_catch()
          to label %39 unwind label %48

39:                                               ; preds = %38
  br label %40

40:                                               ; preds = %39, %30
  invoke void @_ZN5Catch16AssertionHandler8completeEv(ptr noundef nonnull align 8 dereferenceable(72) %3)
          to label %41 unwind label %48

41:                                               ; preds = %40
  call void @_ZN5Catch16AssertionHandlerD2Ev(ptr noundef nonnull align 8 dereferenceable(72) %3) #6
  call void @llvm.lifetime.end.p0(i64 72, ptr %3) #6
  br label %42

42:                                               ; preds = %41
  br label %43

43:                                               ; preds = %42
  call void @llvm.lifetime.end.p0(i64 64, ptr %1) #6
  ret void

44:                                               ; preds = %35
  %45 = landingpad { ptr, i32 }
          cleanup
  %46 = extractvalue { ptr, i32 } %45, 0
  store ptr %46, ptr %9, align 8
  %47 = extractvalue { ptr, i32 } %45, 1
  store i32 %47, ptr %10, align 4
  invoke void @__cxa_end_catch()
          to label %52 unwind label %59

48:                                               ; preds = %40, %38
  %49 = landingpad { ptr, i32 }
          cleanup
  %50 = extractvalue { ptr, i32 } %49, 0
  store ptr %50, ptr %9, align 8
  %51 = extractvalue { ptr, i32 } %49, 1
  store i32 %51, ptr %10, align 4
  br label %53

52:                                               ; preds = %44
  br label %53

53:                                               ; preds = %52, %48
  call void @_ZN5Catch16AssertionHandlerD2Ev(ptr noundef nonnull align 8 dereferenceable(72) %3) #6
  call void @llvm.lifetime.end.p0(i64 72, ptr %3) #6
  call void @llvm.lifetime.end.p0(i64 64, ptr %1) #6
  br label %54

54:                                               ; preds = %53
  %55 = load ptr, ptr %9, align 8
  %56 = load i32, ptr %10, align 4
  %57 = insertvalue { ptr, i32 } poison, ptr %55, 0
  %58 = insertvalue { ptr, i32 } %57, i32 %56, 1
  resume { ptr, i32 } %58

59:                                               ; preds = %44
  %60 = landingpad { ptr, i32 }
          catch ptr null
  %61 = extractvalue { ptr, i32 } %60, 0
  call void @__clang_call_terminate(ptr %61) #15
  unreachable
}