; Function Attrs: mustprogress uwtable
define internal void @_ZL19C_A_T_C_H_T_E_S_T_2v() #1 personality ptr @__gxx_personality_v0 {
  %1 = alloca %"class.Catch::UnaryExpr", align 8
  %2 = alloca %"struct.vcpkg::Optional", align 8
  %3 = alloca %"class.Catch::AssertionHandler", align 8
  %4 = alloca %"class.Catch::StringRef", align 8
  %5 = alloca %"struct.Catch::SourceLineInfo", align 8
  %6 = alloca %"class.Catch::StringRef", align 8
  call void @llvm.lifetime.start.p0(i64 64, ptr nonnull %2) #16
  call void @_ZN5vcpkg5CTime5parseENS_11ZStringViewE(ptr dead_on_unwind nonnull writable sret(%"struct.vcpkg::Optional") align 8 %2, ptr nonnull @.str.9, i64 0)
  call void @llvm.lifetime.start.p0(i64 72, ptr nonnull %3) #16
  call void @llvm.lifetime.start.p0(i64 16, ptr nonnull %4) #16
  store ptr @.str.17, ptr %4, align 8
  %7 = getelementptr inbounds nuw i8, ptr %4, i64 8
  store i64 13, ptr %7, align 8
  call void @llvm.lifetime.start.p0(i64 16, ptr nonnull %5) #16
  store ptr @.str, ptr %5, align 8, !tbaa !4
  %8 = getelementptr inbounds nuw i8, ptr %5, i64 8
  store i64 20, ptr %8, align 8, !tbaa !11
  call void @_ZN5Catch9StringRefC1EPKc(ptr noundef nonnull align 8 dereferenceable(16) %6, ptr noundef nonnull @.str.12) #16
  %9 = call noundef i32 @_ZN5CatchorENS_17ResultDisposition5FlagsES1_(i32 noundef 1, i32 noundef 4)
  %10 = load ptr, ptr %6, align 8
  %11 = getelementptr inbounds nuw i8, ptr %6, i64 8
  %12 = load i64, ptr %11, align 8
  call void @_ZN5Catch16AssertionHandlerC1ERKNS_9StringRefERKNS_14SourceLineInfoES1_NS_17ResultDisposition5FlagsE(ptr noundef nonnull align 8 dereferenceable(72) %3, ptr noundef nonnull align 8 dereferenceable(16) %4, ptr noundef nonnull align 8 dereferenceable(16) %5, ptr %10, i64 %12, i32 noundef %9)
  call void @llvm.lifetime.end.p0(i64 16, ptr nonnull %5) #16
  call void @llvm.lifetime.end.p0(i64 16, ptr nonnull %4) #16
  %13 = load i8, ptr %2, align 8, !tbaa !12, !range !15, !noundef !16
  call void @llvm.lifetime.start.p0(i64 16, ptr nonnull %1) #16
  %14 = getelementptr inbounds nuw i8, ptr %1, i64 8
  store i8 0, ptr %14, align 8, !tbaa !17, !alias.scope !47
  %15 = getelementptr inbounds nuw i8, ptr %1, i64 9
  store i8 %13, ptr %15, align 1, !tbaa !22, !alias.scope !47
  store ptr getelementptr inbounds nuw inrange(-16, 24) (i8, ptr @_ZTVN5Catch9UnaryExprIbEE, i64 16), ptr %1, align 8, !tbaa !23, !alias.scope !47
  %16 = getelementptr inbounds nuw i8, ptr %1, i64 10
  store i8 %13, ptr %16, align 2, !tbaa !25, !alias.scope !47
  invoke void @_ZN5Catch16AssertionHandler10handleExprERKNS_20ITransientExpressionE(ptr noundef nonnull align 8 dereferenceable(72) %3, ptr noundef nonnull align 8 dereferenceable(10) %1)
          to label %20 unwind label %.body

.body:                                            ; preds = %0
  %17 = landingpad { ptr, i32 }
          catch ptr null
  call void @_ZN5Catch20ITransientExpressionD2Ev(ptr noundef nonnull align 8 dereferenceable(11) %1) #16
  call void @llvm.lifetime.end.p0(i64 16, ptr nonnull %1) #16
  %18 = extractvalue { ptr, i32 } %17, 0
  %19 = call ptr @__cxa_begin_catch(ptr %18) #16
  invoke void @_ZN5Catch16AssertionHandler33handleUnexpectedInflightExceptionEv(ptr noundef nonnull align 8 dereferenceable(72) %3)
          to label %21 unwind label %36

20:                                               ; preds = %0
  call void @_ZN5Catch20ITransientExpressionD2Ev(ptr noundef nonnull align 8 dereferenceable(11) %1) #16
  call void @llvm.lifetime.end.p0(i64 16, ptr nonnull %1) #16
  br label %22

21:                                               ; preds = %.body
  invoke void @__cxa_end_catch()
          to label %22 unwind label %38

22:                                               ; preds = %21, %20
  invoke void @_ZN5Catch16AssertionHandler8completeEv(ptr noundef nonnull align 8 dereferenceable(72) %3)
          to label %23 unwind label %38

23:                                               ; preds = %22
  %24 = getelementptr inbounds nuw i8, ptr %3, i64 58
  %25 = load i8, ptr %24, align 2, !tbaa !27, !range !15, !noundef !16
  %26 = trunc nuw i8 %25 to i1
  br i1 %26, label %_ZN5Catch16AssertionHandlerD2Ev.exit, label %27

27:                                               ; preds = %23
  %28 = getelementptr inbounds nuw i8, ptr %3, i64 64
  %29 = load ptr, ptr %28, align 8, !tbaa !34
  %30 = load ptr, ptr %29, align 8, !tbaa !23
  %31 = getelementptr inbounds nuw i8, ptr %30, i64 112
  %32 = load ptr, ptr %31, align 8
  invoke void %32(ptr noundef nonnull align 8 dereferenceable(8) %29, ptr noundef nonnull align 8 dereferenceable(72) %3)
          to label %_ZN5Catch16AssertionHandlerD2Ev.exit unwind label %33

33:                                               ; preds = %27
  %34 = landingpad { ptr, i32 }
          catch ptr null
  %35 = extractvalue { ptr, i32 } %34, 0
  call void @__clang_call_terminate(ptr %35) #17
  unreachable

_ZN5Catch16AssertionHandlerD2Ev.exit:             ; preds = %23, %27
  call void @llvm.lifetime.end.p0(i64 72, ptr nonnull %3) #16
  call void @llvm.lifetime.end.p0(i64 64, ptr nonnull %2) #16
  ret void

36:                                               ; preds = %.body
  %37 = landingpad { ptr, i32 }
          cleanup
  invoke void @__cxa_end_catch()
          to label %40 unwind label %41

38:                                               ; preds = %22, %21
  %39 = landingpad { ptr, i32 }
          cleanup
  br label %40

40:                                               ; preds = %36, %38
  %.pn = phi { ptr, i32 } [ %39, %38 ], [ %37, %36 ]
  call void @_ZN5Catch16AssertionHandlerD2Ev(ptr noundef nonnull align 8 dereferenceable(72) %3) #16
  call void @llvm.lifetime.end.p0(i64 72, ptr nonnull %3) #16
  call void @llvm.lifetime.end.p0(i64 64, ptr nonnull %2) #16
  resume { ptr, i32 } %.pn

41:                                               ; preds = %36
  %42 = landingpad { ptr, i32 }
          catch ptr null
  %43 = extractvalue { ptr, i32 } %42, 0
  call void @__clang_call_terminate(ptr %43) #17
  unreachable
}